; Function Attrs: mustprogress nofree norecurse nosync nounwind willreturn memory(readwrite, inaccessiblemem: none) uwtable
define hidden noundef ptr @_ZN10ZPageCache27alloc_oversized_medium_pageEm(ptr nocapture noundef nonnull align 8 dereferenceable(64) %0, i64 noundef %1) local_unnamed_addr #3 align 2 {
  %3 = load i64, ptr @ZPageSizeMedium, align 8
  %.not = icmp ult i64 %3, %1
  br i1 %.not, label %_ZN5ZListI5ZPageE12remove_firstEv.exit, label %4

4:                                                ; preds = %2
  %5 = getelementptr inbounds i8, ptr %0, i64 8
  %6 = getelementptr inbounds i8, ptr %0, i64 24
  %7 = load i64, ptr %6, align 8
  %8 = icmp eq i64 %7, 0
  %9 = load ptr, ptr %5, align 8
  %10 = ptrtoint ptr %9 to i64
  %11 = add i64 %10, -176
  %.not.i2 = icmp eq i64 %11, 0
  %.not.i = select i1 %8, i1 true, i1 %.not.i2
  br i1 %.not.i, label %_ZN5ZListI5ZPageE12remove_firstEv.exit, label %12

12:                                               ; preds = %4
  %13 = inttoptr i64 %11 to ptr
  %14 = getelementptr inbounds i8, ptr %13, i64 176
  %15 = load ptr, ptr %14, align 8
  %16 = getelementptr inbounds i8, ptr %13, i64 184
  %17 = load ptr, ptr %16, align 8
  %18 = load ptr, ptr %17, align 8
  store ptr %18, ptr %14, align 8
  %19 = getelementptr inbounds i8, ptr %15, i64 8
  %20 = load ptr, ptr %19, align 8
  store ptr %20, ptr %16, align 8
  store ptr %17, ptr %19, align 8
  store ptr %15, ptr %17, align 8
  %21 = load i64, ptr %6, align 8
  %22 = add i64 %21, -1
  store i64 %22, ptr %6, align 8
  br label %_ZN5ZListI5ZPageE12remove_firstEv.exit

_ZN5ZListI5ZPageE12remove_firstEv.exit:           ; preds = %12, %4, %2
  %.0 = phi ptr [ null, %2 ], [ null, %4 ], [ %13, %12 ]
  ret ptr %.0
}